; Function Attrs: mustprogress uwtable
define void @_ZN27NumericValueChooserDelegate15setDefaultValueEi8QVariant(ptr noundef nonnull align 8 dereferenceable(64) %0, i32 noundef %1, ptr noundef nonnull %2) local_unnamed_addr #0 align 2 {
  %4 = getelementptr inbounds i8, ptr %0, i64 20
  %5 = getelementptr inbounds i8, ptr %0, i64 16
  %6 = load i32, ptr %5, align 8
  %7 = load i32, ptr %4, align 4
  %8 = tail call i32 @llvm.smax.i32(i32 %6, i32 %1)
  %9 = tail call i32 @llvm.smin.i32(i32 %7, i32 %8)
  %10 = getelementptr inbounds i8, ptr %0, i64 24
  store i32 %9, ptr %10, align 8
  %11 = getelementptr inbounds i8, ptr %0, i64 32
  %12 = tail call noundef nonnull align 8 dereferenceable(32) ptr @_ZN8QVariantaSERKS_(ptr noundef nonnull align 8 dereferenceable(32) %11, ptr noundef nonnull align 8 dereferenceable(32) %2)
  ret void
}